; Function Attrs: nounwind uwtable
define void @Java_sun_nio_fs_UnixNativeDispatcher_renameat0(ptr noundef %0, ptr nocapture noundef readnone %1, i32 noundef %2, i64 noundef %3, i32 noundef %4, i64 noundef %5) local_unnamed_addr #0 {
  %7 = load ptr, ptr @my_renameat_func, align 8
  %8 = icmp eq ptr %7, null
  br i1 %8, label %9, label %10

9:                                                ; preds = %6
  tail call void @JNU_ThrowInternalError(ptr noundef %0, ptr noundef nonnull @.str.40) #11
  br label %throwUnixException.exit

10:                                               ; preds = %6
  %11 = inttoptr i64 %5 to ptr
  %12 = inttoptr i64 %3 to ptr
  %13 = tail call i32 %7(i32 noundef %2, ptr noundef %12, i32 noundef %4, ptr noundef %11) #11
  %14 = icmp eq i32 %13, -1
  br i1 %14, label %15, label %throwUnixException.exit

15:                                               ; preds = %10
  %16 = tail call ptr @__errno_location() #12
  %17 = load i32, ptr %16, align 4
  %18 = tail call ptr (ptr, ptr, ptr, ...) @JNU_NewObjectByName(ptr noundef %0, ptr noundef nonnull @.str.46, ptr noundef nonnull @.str.47, i32 noundef %17) #11
  %.not.i = icmp eq ptr %18, null
  br i1 %.not.i, label %throwUnixException.exit, label %19

19:                                               ; preds = %15
  %20 = load ptr, ptr %0, align 8
  %21 = getelementptr inbounds i8, ptr %20, i64 104
  %22 = load ptr, ptr %21, align 8
  %23 = tail call i32 %22(ptr noundef nonnull %0, ptr noundef nonnull %18) #11
  br label %throwUnixException.exit

throwUnixException.exit:                          ; preds = %19, %15, %10, %9
  ret void
}